(dp1
S'ind_cco_fin_ult1'
p2
(dp3
S'reg_alpha'
p4
cnumpy.core.multiarray
scalar
p5
(cnumpy
dtype
p6
(S'f8'
I0
I1
tRp7
(I3
S'<'
NNNI-1
I-1
I0
tbS'\x00\x00\x00\x00\x00\x00\x00\x00'
tRp8
sS'scale_pos_weight'
p9
g5
(g7
S'\xab\xaa\xaa\xaa\xaa\xaa\n@'
tRp10
sS'learning_rate'
p11
g5
(g7
S'\x92$I\x92$I\xb2?'
tRp12
sS'max_delta_step'
p13
I5
sS'min_child_weight'
p14
g5
(g7
S'\x00\x00\x00\x00\x00\x00\x00\x00'
tRp15
sS'n_estimators'
p16
g5
(g6
(S'i8'
I0
I1
tRp17
(I3
S'<'
NNNI-1
I-1
I0
tbS'\x01\x00\x00\x00\x00\x00\x00\x00'
tRp18
sS'reg_lambda'
p19
g5
(g7
S'\xb7m\xdb\xb6m\xdb\xe6?'
tRp20
sS'objective'
p21
S'binary:logistic'
p22
sS'max_depth'
p23
g5
(g17
S'\x02\x00\x00\x00\x00\x00\x00\x00'
tRp24
sS'gamma'
p25
g5
(g7
S'\x00\x00\x00\x00\x00\x00\x00\x00'
tRp26
ssS'ind_deme_fin_ult1'
p27
g3
sS'ind_ctju_fin_ult1'
p28
g3
sS'ind_valo_fin_ult1'
p29
g3
sS'ind_reca_fin_ult1'
p30
g3
sS'ind_cder_fin_ult1'
p31
g3
sS'ind_plan_fin_ult1'
p32
g3
sS'ind_fond_fin_ult1'
p33
g3
sS'ind_hip_fin_ult1'
p34
g3
sS'ind_aval_fin_ult1'
p35
g3
sS'ind_nomina_ult1'
p36
g3
sS'ind_cno_fin_ult1'
p37
g3
sS'ind_pres_fin_ult1'
p38
g3
sS'ind_ctpp_fin_ult1'
p39
g3
sS'ind_ahor_fin_ult1'
p40
g3
sS'ind_dela_fin_ult1'
p41
g3
sS'ind_ecue_fin_ult1'
p42
g3
sS'ind_nom_pens_ult1'
p43
g3
sS'ind_recibo_ult1'
p44
g3
sS'ind_deco_fin_ult1'
p45
g3
sS'ind_tjcr_fin_ult1'
p46
g3
sS'ind_ctop_fin_ult1'
p47
g3
sS'ind_viv_fin_ult1'
p48
g3
sS'ind_ctma_fin_ult1'
p49
g3
s.