(dp1
S'ind_cco_fin_ult1'
p2
F0.6029735913394797
sS'ind_deme_fin_ult1'
p3
F0.0010962004468546777
sS'ind_pres_fin_ult1'
p4
F0.0021376445540525596
sS'ind_valo_fin_ult1'
p5
F0.023004104578166821
sS'ind_reca_fin_ult1'
p6
F0.048888822083768609
sS'ind_ctju_fin_ult1'
p7
F0.0081393688419248902
sS'ind_cder_fin_ult1'
p8
F0.00033927457512838212
sS'ind_plan_fin_ult1'
p9
F0.0079010177163600127
sS'ind_fond_fin_ult1'
p10
F0.015768752167438446
sS'ind_hip_fin_ult1'
p11
F0.004861504038548463
sS'ind_aval_fin_ult1'
p12
F1.7178459500171247e-05
sS'ind_nomina_ult1'
p13
F0.051867137499610798
sS'ind_cno_fin_ult1'
p14
F0.078442214346375716
sS'ind_ctpp_fin_ult1'
p15
F0.035721532876887348
sS'ind_ahor_fin_ult1'
p16
F8.3744990063334827e-05
sS'ind_dela_fin_ult1'
p17
F0.033516248138552862
sS'ind_ecue_fin_ult1'
p18
F0.081431266299405516
sS'ind_nom_pens_ult1'
p19
F0.056740451729065632
sS'ind_recibo_ult1'
p20
F0.12137655290589747
sS'ind_deco_fin_ult1'
p21
F0.00034034822884714287
sS'ind_tjcr_fin_ult1'
p22
F0.0373867697946852
sS'ind_ctop_fin_ult1'
p23
F0.10799775391642036
sS'ind_viv_fin_ult1'
p24
F0.0031769413538129203
sS'ind_ctma_fin_ult1'
p25
F0.0086933741608054126
s.